target datalayout = "e-m:e-p270:32:32-p271:32:32-p272:64:64-i64:64-i128:128-f80:128-n8:16:32:64-S128"
target triple = "x86_64-pc-linux-gnu"

%"class.ODDLParser::Value" = type { i32, i64, ptr, ptr }

; Function Attrs: mustprogress nounwind uwtable
define hidden noundef double @_ZNK10ODDLParser5Value9getDoubleEv(ptr noundef nonnull align 8 dereferenceable(32) %0) #2 align 2 {
  %2 = alloca double, align 8
  %3 = alloca ptr, align 8
  %4 = alloca double, align 8
  %5 = alloca double, align 8
  store ptr %0, ptr %3, align 8
  %6 = load ptr, ptr %3, align 8
  %7 = getelementptr inbounds nuw %"class.ODDLParser::Value", ptr %6, i32 0, i32 0
  %8 = load i32, ptr %7, align 8
  %9 = icmp eq i32 %8, 11
  br i1 %9, label %10, label %18

10:                                               ; preds = %1
  call void @llvm.lifetime.start.p0(i64 8, ptr %4) #1
  %11 = getelementptr inbounds nuw %"class.ODDLParser::Value", ptr %6, i32 0, i32 2
  %12 = load ptr, ptr %11, align 8
  %13 = getelementptr inbounds nuw %"class.ODDLParser::Value", ptr %6, i32 0, i32 1
  %14 = load i64, ptr %13, align 8
  call void @llvm.memcpy.p0.p0.i64(ptr align 8 %4, ptr align 1 %12, i64 %14, i1 false)
  %15 = load double, ptr %4, align 8
  %16 = fptrunc double %15 to float
  %17 = fpext float %16 to double
  store double %17, ptr %2, align 8
  call void @llvm.lifetime.end.p0(i64 8, ptr %4) #1
  br label %22

18:                                               ; preds = %1
  call void @llvm.lifetime.start.p0(i64 8, ptr %5) #1
  %19 = getelementptr inbounds nuw %"class.ODDLParser::Value", ptr %6, i32 0, i32 2
  %20 = load ptr, ptr %19, align 8
  call void @llvm.memcpy.p0.p0.i64(ptr align 8 %5, ptr align 1 %20, i64 4, i1 false)
  %21 = load double, ptr %5, align 8
  store double %21, ptr %2, align 8
  call void @llvm.lifetime.end.p0(i64 8, ptr %5) #1
  br label %22

22:                                               ; preds = %18, %10
  %23 = load double, ptr %2, align 8
  ret double %23
}