; Function Attrs: mustprogress nofree norecurse nosync nounwind willreturn memory(readwrite, inaccessiblemem: none) uwtable
define hidden noundef double @_ZNK10ODDLParser5Value9getDoubleEv(ptr noundef nonnull readonly align 8 captures(none) dereferenceable(32) %0) local_unnamed_addr #10 align 2 {
  %2 = alloca double, align 8
  %3 = load i32, ptr %0, align 8
  %4 = icmp eq i32 %3, 11
  br i1 %4, label %5, label %12

5:                                                ; preds = %1
  call void @llvm.lifetime.start.p0(i64 8, ptr nonnull %2)
  %6 = getelementptr inbounds nuw i8, ptr %0, i64 16
  %7 = load ptr, ptr %6, align 8
  %8 = getelementptr inbounds nuw i8, ptr %0, i64 8
  %9 = load i64, ptr %8, align 8
  call void @llvm.memcpy.p0.p0.i64(ptr nonnull align 8 %2, ptr align 1 %7, i64 %9, i1 false)
  %.0..0..0..0.1 = load double, ptr %2, align 8
  %10 = fptrunc double %.0..0..0..0.1 to float
  %11 = fpext float %10 to double
  call void @llvm.lifetime.end.p0(i64 8, ptr nonnull %2)
  br label %16

12:                                               ; preds = %1
  %13 = getelementptr inbounds nuw i8, ptr %0, i64 16
  %14 = load ptr, ptr %13, align 8
  %.0.copyload = load i32, ptr %14, align 1
  %.0.insert.ext = zext i32 %.0.copyload to i64
  %15 = bitcast i64 %.0.insert.ext to double
  br label %16

16:                                               ; preds = %12, %5
  %.0 = phi double [ %11, %5 ], [ %15, %12 ]
  ret double %.0
}